; Function Attrs: mustprogress nofree norecurse nosync nounwind willreturn memory(read, inaccessiblemem: none) uwtable
define hidden noundef i32 @_ZN4lean16get_app_num_argsERKNS_4exprE(ptr noundef nonnull readonly align 8 captures(none) dereferenceable(8) %0) local_unnamed_addr #6 {
  %2 = load ptr, ptr %0, align 8, !tbaa !10
  %3 = getelementptr i8, ptr %2, i64 4
  %.val.i.i.i.i5 = load i32, ptr %3, align 4
  %.mask.i6 = and i32 %.val.i.i.i.i5, -16777216
  %4 = icmp eq i32 %.mask.i6, 83886080
  br i1 %4, label %.lr.ph, label %._crit_edge

.lr.ph:                                           ; preds = %1, %.lr.ph
  %5 = phi ptr [ %8, %.lr.ph ], [ %2, %1 ]
  %.07 = phi i32 [ %7, %.lr.ph ], [ 0, %1 ]
  %6 = getelementptr inbounds nuw i8, ptr %5, i64 8
  %7 = add i32 %.07, 1
  %8 = load ptr, ptr %6, align 8, !tbaa !10
  %9 = getelementptr i8, ptr %8, i64 4
  %.val.i.i.i.i = load i32, ptr %9, align 4
  %.mask.i = and i32 %.val.i.i.i.i, -16777216
  %10 = icmp eq i32 %.mask.i, 83886080
  br i1 %10, label %.lr.ph, label %._crit_edge, !llvm.loop !81

._crit_edge:                                      ; preds = %.lr.ph, %1
  %.0.lcssa = phi i32 [ 0, %1 ], [ %7, %.lr.ph ]
  ret i32 %.0.lcssa
}